target datalayout = "e-m:e-p270:32:32-p271:32:32-p272:64:64-i64:64-i128:128-f80:128-n8:16:32:64-S128"
target triple = "x86_64-pc-linux-gnu"

%struct.FT_ValidatorRec_ = type { [1 x %struct.__jmp_buf_tag], ptr, ptr, i32, i32 }
%struct.__jmp_buf_tag = type { [8 x i64], i32, %struct.__sigset_t }
%struct.__sigset_t = type { [16 x i64] }
%struct.TT_ValidatorRec_ = type { %struct.FT_ValidatorRec_, i32 }

; Function Attrs: nounwind uwtable
define internal i32 @tt_cmap0_validate(ptr noundef %0, ptr noundef %1) #0 {
  %3 = alloca ptr, align 8
  %4 = alloca ptr, align 8
  %5 = alloca ptr, align 8
  %6 = alloca i32, align 4
  %7 = alloca i32, align 4
  %8 = alloca i32, align 4
  store ptr %0, ptr %3, align 8
  store ptr %1, ptr %4, align 8
  %9 = load ptr, ptr %3, align 8
  %10 = getelementptr inbounds i8, ptr %9, i64 2
  %11 = getelementptr inbounds i8, ptr %10, i64 2
  %12 = load ptr, ptr %4, align 8
  %13 = getelementptr inbounds %struct.FT_ValidatorRec_, ptr %12, i32 0, i32 2
  %14 = load volatile ptr, ptr %13, align 8
  %15 = icmp ugt ptr %11, %14
  br i1 %15, label %16, label %18

16:                                               ; preds = %2
  %17 = load ptr, ptr %4, align 8
  call void @ft_validator_error(ptr noundef %17, i32 noundef 8)
  br label %18

18:                                               ; preds = %16, %2
  %19 = load ptr, ptr %3, align 8
  %20 = getelementptr inbounds i8, ptr %19, i64 2
  store ptr %20, ptr %5, align 8
  %21 = load ptr, ptr %5, align 8
  %22 = getelementptr inbounds i8, ptr %21, i64 2
  store ptr %22, ptr %5, align 8
  %23 = load ptr, ptr %5, align 8
  %24 = getelementptr inbounds i8, ptr %23, i64 -2
  %25 = getelementptr inbounds i8, ptr %24, i64 0
  %26 = load i8, ptr %25, align 1
  %27 = zext i8 %26 to i16
  %28 = zext i16 %27 to i32
  %29 = shl i32 %28, 8
  %30 = load ptr, ptr %5, align 8
  %31 = getelementptr inbounds i8, ptr %30, i64 -2
  %32 = getelementptr inbounds i8, ptr %31, i64 1
  %33 = load i8, ptr %32, align 1
  %34 = zext i8 %33 to i16
  %35 = zext i16 %34 to i32
  %36 = shl i32 %35, 0
  %37 = or i32 %29, %36
  %38 = trunc i32 %37 to i16
  %39 = zext i16 %38 to i32
  store i32 %39, ptr %6, align 4
  %40 = load ptr, ptr %3, align 8
  %41 = load i32, ptr %6, align 4
  %42 = zext i32 %41 to i64
  %43 = getelementptr inbounds i8, ptr %40, i64 %42
  %44 = load ptr, ptr %4, align 8
  %45 = getelementptr inbounds %struct.FT_ValidatorRec_, ptr %44, i32 0, i32 2
  %46 = load volatile ptr, ptr %45, align 8
  %47 = icmp ugt ptr %43, %46
  br i1 %47, label %51, label %48

48:                                               ; preds = %18
  %49 = load i32, ptr %6, align 4
  %50 = icmp ult i32 %49, 262
  br i1 %50, label %51, label %53

51:                                               ; preds = %48, %18
  %52 = load ptr, ptr %4, align 8
  call void @ft_validator_error(ptr noundef %52, i32 noundef 8)
  br label %53

53:                                               ; preds = %51, %48
  %54 = load ptr, ptr %4, align 8
  %55 = getelementptr inbounds %struct.FT_ValidatorRec_, ptr %54, i32 0, i32 3
  %56 = load volatile i32, ptr %55, align 8
  %57 = icmp uge i32 %56, 1
  br i1 %57, label %58, label %81

58:                                               ; preds = %53
  %59 = load ptr, ptr %3, align 8
  %60 = getelementptr inbounds i8, ptr %59, i64 6
  store ptr %60, ptr %5, align 8
  store i32 0, ptr %7, align 4
  br label %61

61:                                               ; preds = %77, %58
  %62 = load i32, ptr %7, align 4
  %63 = icmp ult i32 %62, 256
  br i1 %63, label %64, label %80

64:                                               ; preds = %61
  %65 = load ptr, ptr %5, align 8
  %66 = getelementptr inbounds i8, ptr %65, i32 1
  store ptr %66, ptr %5, align 8
  %67 = load i8, ptr %65, align 1
  %68 = zext i8 %67 to i32
  store i32 %68, ptr %8, align 4
  %69 = load i32, ptr %8, align 4
  %70 = load ptr, ptr %4, align 8
  %71 = getelementptr inbounds %struct.TT_ValidatorRec_, ptr %70, i32 0, i32 1
  %72 = load i32, ptr %71, align 8
  %73 = icmp uge i32 %69, %72
  br i1 %73, label %74, label %76

74:                                               ; preds = %64
  %75 = load ptr, ptr %4, align 8
  call void @ft_validator_error(ptr noundef %75, i32 noundef 16)
  br label %76

76:                                               ; preds = %74, %64
  br label %77

77:                                               ; preds = %76
  %78 = load i32, ptr %7, align 4
  %79 = add i32 %78, 1
  store i32 %79, ptr %7, align 4
  br label %61, !llvm.loop !6

80:                                               ; preds = %61
  br label %81

81:                                               ; preds = %80, %53
  ret i32 0
}