; Function Attrs: nounwind uwtable
define internal noundef i32 @tt_cmap0_validate(ptr noundef readonly %0, ptr noundef %1) #0 {
  %3 = getelementptr inbounds i8, ptr %0, i64 4
  %4 = getelementptr inbounds i8, ptr %1, i64 208
  %5 = load volatile ptr, ptr %4, align 8
  %6 = icmp ugt ptr %3, %5
  br i1 %6, label %7, label %8

7:                                                ; preds = %2
  tail call void @ft_validator_error(ptr noundef nonnull %1, i32 noundef 8) #26
  br label %8

8:                                                ; preds = %7, %2
  %9 = getelementptr inbounds i8, ptr %0, i64 2
  %10 = load i8, ptr %9, align 1
  %11 = zext i8 %10 to i32
  %12 = shl nuw nsw i32 %11, 8
  %13 = getelementptr inbounds i8, ptr %0, i64 3
  %14 = load i8, ptr %13, align 1
  %15 = zext i8 %14 to i32
  %16 = or disjoint i32 %12, %15
  %17 = zext nneg i32 %16 to i64
  %18 = getelementptr inbounds i8, ptr %0, i64 %17
  %19 = load volatile ptr, ptr %4, align 8
  %20 = icmp ugt ptr %18, %19
  %21 = icmp ult i32 %16, 262
  %or.cond = or i1 %21, %20
  br i1 %or.cond, label %22, label %23

22:                                               ; preds = %8
  tail call void @ft_validator_error(ptr noundef nonnull %1, i32 noundef 8) #26
  br label %23

23:                                               ; preds = %8, %22
  %24 = getelementptr inbounds i8, ptr %1, i64 216
  %25 = load volatile i32, ptr %24, align 8
  %.not = icmp eq i32 %25, 0
  br i1 %.not, label %.loopexit, label %26

26:                                               ; preds = %23
  %27 = getelementptr inbounds i8, ptr %0, i64 6
  %28 = getelementptr inbounds i8, ptr %1, i64 224
  br label %29

29:                                               ; preds = %26, %35
  %.023 = phi ptr [ %27, %26 ], [ %30, %35 ]
  %.02022 = phi i32 [ 0, %26 ], [ %36, %35 ]
  %30 = getelementptr inbounds i8, ptr %.023, i64 1
  %31 = load i8, ptr %.023, align 1
  %32 = zext i8 %31 to i32
  %33 = load i32, ptr %28, align 8
  %.not21 = icmp ugt i32 %33, %32
  br i1 %.not21, label %35, label %34

34:                                               ; preds = %29
  tail call void @ft_validator_error(ptr noundef nonnull %1, i32 noundef 16) #26
  br label %35

35:                                               ; preds = %29, %34
  %36 = add nuw nsw i32 %.02022, 1
  %exitcond.not = icmp eq i32 %36, 256
  br i1 %exitcond.not, label %.loopexit, label %29, !llvm.loop !6

.loopexit:                                        ; preds = %35, %23
  ret i32 0
}